target datalayout = "e-m:e-p270:32:32-p271:32:32-p272:64:64-i64:64-i128:128-f80:128-n8:16:32:64-S128"
target triple = "x86_64-pc-linux-gnu"

%struct.timespec = type { i64, i64 }

; Function Attrs: nounwind uwtable
define dso_local i32 @uv_cond_timedwait(ptr noundef %0, ptr noundef %1, i64 noundef %2) #0 {
  %4 = alloca i32, align 4
  %5 = alloca ptr, align 8
  %6 = alloca ptr, align 8
  %7 = alloca i64, align 8
  %8 = alloca i32, align 4
  %9 = alloca %struct.timespec, align 8
  %10 = alloca i32, align 4
  store ptr %0, ptr %5, align 8, !tbaa !4
  store ptr %1, ptr %6, align 8, !tbaa !4
  store i64 %2, ptr %7, align 8, !tbaa !20
  call void @llvm.lifetime.start.p0(i64 4, ptr %8) #8
  call void @llvm.lifetime.start.p0(i64 16, ptr %9) #8
  %11 = call i64 @uv__hrtime(i32 noundef 0)
  %12 = load i64, ptr %7, align 8, !tbaa !20
  %13 = add i64 %12, %11
  store i64 %13, ptr %7, align 8, !tbaa !20
  %14 = load i64, ptr %7, align 8, !tbaa !20
  %15 = udiv i64 %14, 1000000000
  %16 = getelementptr inbounds nuw %struct.timespec, ptr %9, i32 0, i32 0
  store i64 %15, ptr %16, align 8, !tbaa !36
  %17 = load i64, ptr %7, align 8, !tbaa !20
  %18 = urem i64 %17, 1000000000
  %19 = getelementptr inbounds nuw %struct.timespec, ptr %9, i32 0, i32 1
  store i64 %18, ptr %19, align 8, !tbaa !38
  %20 = load ptr, ptr %5, align 8, !tbaa !4
  %21 = load ptr, ptr %6, align 8, !tbaa !4
  %22 = call i32 @pthread_cond_timedwait(ptr noundef %20, ptr noundef %21, ptr noundef %9)
  store i32 %22, ptr %8, align 4, !tbaa !8
  %23 = load i32, ptr %8, align 4, !tbaa !8
  %24 = icmp eq i32 %23, 0
  br i1 %24, label %25, label %26

25:                                               ; preds = %3
  store i32 0, ptr %4, align 4
  store i32 1, ptr %10, align 4
  br label %31

26:                                               ; preds = %3
  %27 = load i32, ptr %8, align 4, !tbaa !8
  %28 = icmp eq i32 %27, 110
  br i1 %28, label %29, label %30

29:                                               ; preds = %26
  store i32 -110, ptr %4, align 4
  store i32 1, ptr %10, align 4
  br label %31

30:                                               ; preds = %26
  call void @abort() #9
  unreachable

31:                                               ; preds = %29, %25
  call void @llvm.lifetime.end.p0(i64 16, ptr %9) #8
  call void @llvm.lifetime.end.p0(i64 4, ptr %8) #8
  %32 = load i32, ptr %4, align 4
  ret i32 %32
}