; Function Attrs: nounwind uwtable
define dso_local range(i32 -110, 1) i32 @uv_cond_timedwait(ptr noundef %0, ptr noundef %1, i64 noundef %2) local_unnamed_addr #0 {
  %4 = alloca %struct.timespec, align 8
  call void @llvm.lifetime.start.p0(i64 16, ptr nonnull %4) #10
  %5 = tail call i64 @uv__hrtime(i32 noundef 0) #10
  %6 = add i64 %5, %2
  %7 = udiv i64 %6, 1000000000
  store i64 %7, ptr %4, align 8, !tbaa !25
  %8 = urem i64 %6, 1000000000
  %9 = getelementptr inbounds nuw i8, ptr %4, i64 8
  store i64 %8, ptr %9, align 8, !tbaa !27
  %10 = call i32 @pthread_cond_timedwait(ptr noundef %0, ptr noundef %1, ptr noundef nonnull %4) #10
  switch i32 %10, label %12 [
    i32 0, label %13
    i32 110, label %11
  ]

11:                                               ; preds = %3
  br label %13

12:                                               ; preds = %3
  call void @abort() #11
  unreachable

13:                                               ; preds = %3, %11
  %.0 = phi i32 [ -110, %11 ], [ %10, %3 ]
  call void @llvm.lifetime.end.p0(i64 16, ptr nonnull %4) #10
  ret i32 %.0
}